; Function Attrs: nounwind uwtable
define internal noundef i32 @tftp_setup_connection(ptr noundef captures(none) %0, ptr noundef captures(none) initializes((1410, 1411)) %1) #0 {
  %3 = getelementptr inbounds nuw i8, ptr %1, i64 1410
  store i8 4, ptr %3, align 2, !tbaa !3
  %4 = getelementptr inbounds nuw i8, ptr %0, i64 4616
  %5 = load ptr, ptr %4, align 8, !tbaa !29
  %6 = tail call ptr @strstr(ptr noundef nonnull dereferenceable(1) %5, ptr noundef nonnull dereferenceable(1) @.str.45) #12
  %.not = icmp eq ptr %6, null
  br i1 %.not, label %7, label %.thread

7:                                                ; preds = %2
  %8 = getelementptr inbounds nuw i8, ptr %1, i64 88
  %9 = load ptr, ptr %8, align 8, !tbaa !84
  %10 = tail call ptr @strstr(ptr noundef nonnull dereferenceable(1) %9, ptr noundef nonnull dereferenceable(1) @.str.45) #12
  %.not10 = icmp eq ptr %10, null
  br i1 %.not10, label %22, label %.thread

.thread:                                          ; preds = %2, %7
  %.013 = phi ptr [ %10, %7 ], [ %6, %2 ]
  store i8 0, ptr %.013, align 1, !tbaa !85
  %11 = getelementptr inbounds nuw i8, ptr %.013, i64 6
  %12 = load i8, ptr %11, align 1, !tbaa !85
  %13 = tail call signext i8 @Curl_raw_toupper(i8 noundef signext %12) #13
  switch i8 %13, label %18 [
    i8 65, label %14
    i8 78, label %14
  ]

14:                                               ; preds = %.thread, %.thread
  %15 = getelementptr inbounds nuw i8, ptr %0, i64 5036
  %16 = load i32, ptr %15, align 4
  %17 = or i32 %16, 16384
  store i32 %17, ptr %15, align 4
  br label %22

18:                                               ; preds = %.thread
  %19 = getelementptr inbounds nuw i8, ptr %0, i64 5036
  %20 = load i32, ptr %19, align 4
  %21 = and i32 %20, -16385
  store i32 %21, ptr %19, align 4
  br label %22

22:                                               ; preds = %14, %18, %7
  ret i32 0
}